target datalayout = "e-m:e-p270:32:32-p271:32:32-p272:64:64-i64:64-i128:128-f80:128-n8:16:32:64-S128"
target triple = "x86_64-pc-linux-gnu"

%struct.mbedtls_asn1_buf = type { i32, i64, ptr }

@.str = private unnamed_addr constant [118 x i8] c"generated/home/dtcxzyw/WorkSpace/Projects/compilers/llvm-opt-benchmark/bench/lief/bench_build/mbed_src/library/x509.c\00", align 1

; Function Attrs: inlinehint nounwind uwtable
define internal i32 @mbedtls_error_add(i32 noundef %0, i32 noundef %1, ptr noundef %2, i32 noundef %3) #2 {
  %5 = alloca i32, align 4
  %6 = alloca i32, align 4
  %7 = alloca ptr, align 8
  %8 = alloca i32, align 4
  store i32 %0, ptr %5, align 4, !tbaa !13
  store i32 %1, ptr %6, align 4, !tbaa !13
  store ptr %2, ptr %7, align 8, !tbaa !9
  store i32 %3, ptr %8, align 4, !tbaa !13
  %9 = load i32, ptr %5, align 4, !tbaa !13
  %10 = load i32, ptr %6, align 4, !tbaa !13
  %11 = add nsw i32 %9, %10
  ret i32 %11
}

; Function Attrs: nounwind uwtable
define hidden i32 @mbedtls_x509_get_ext(ptr noundef %0, ptr noundef %1, ptr noundef %2, i32 noundef %3) #0 {
  %5 = alloca i32, align 4
  %6 = alloca ptr, align 8
  %7 = alloca ptr, align 8
  %8 = alloca ptr, align 8
  %9 = alloca i32, align 4
  %10 = alloca i32, align 4
  %11 = alloca i64, align 8
  %12 = alloca i32, align 4
  store ptr %0, ptr %6, align 8, !tbaa !3
  store ptr %1, ptr %7, align 8, !tbaa !9
  store ptr %2, ptr %8, align 8, !tbaa !11
  store i32 %3, ptr %9, align 4, !tbaa !13
  call void @llvm.lifetime.start.p0(i64 4, ptr %10) #9
  store i32 -110, ptr %10, align 4, !tbaa !13
  call void @llvm.lifetime.start.p0(i64 8, ptr %11) #9
  %13 = load ptr, ptr %6, align 8, !tbaa !3
  %14 = load ptr, ptr %7, align 8, !tbaa !9
  %15 = load ptr, ptr %8, align 8, !tbaa !11
  %16 = getelementptr inbounds nuw %struct.mbedtls_asn1_buf, ptr %15, i32 0, i32 1
  %17 = load i32, ptr %9, align 4, !tbaa !13
  %18 = or i32 160, %17
  %19 = call i32 @mbedtls_asn1_get_tag(ptr noundef %13, ptr noundef %14, ptr noundef %16, i32 noundef %18)
  store i32 %19, ptr %10, align 4, !tbaa !13
  %20 = load i32, ptr %10, align 4, !tbaa !13
  %21 = icmp ne i32 %20, 0
  br i1 %21, label %22, label %25

22:                                               ; preds = %4
  %23 = load i32, ptr %10, align 4, !tbaa !13
  %24 = call i32 @mbedtls_error_add(i32 noundef -9472, i32 noundef %23, ptr noundef @.str, i32 noundef 780)
  store i32 %24, ptr %5, align 4
  store i32 1, ptr %12, align 4
  br label %57

25:                                               ; preds = %4
  %26 = load i32, ptr %9, align 4, !tbaa !13
  %27 = or i32 160, %26
  %28 = load ptr, ptr %8, align 8, !tbaa !11
  %29 = getelementptr inbounds nuw %struct.mbedtls_asn1_buf, ptr %28, i32 0, i32 0
  store i32 %27, ptr %29, align 8, !tbaa !16
  %30 = load ptr, ptr %6, align 8, !tbaa !3
  %31 = load ptr, ptr %30, align 8, !tbaa !9
  %32 = load ptr, ptr %8, align 8, !tbaa !11
  %33 = getelementptr inbounds nuw %struct.mbedtls_asn1_buf, ptr %32, i32 0, i32 2
  store ptr %31, ptr %33, align 8, !tbaa !19
  %34 = load ptr, ptr %6, align 8, !tbaa !3
  %35 = load ptr, ptr %34, align 8, !tbaa !9
  %36 = load ptr, ptr %8, align 8, !tbaa !11
  %37 = getelementptr inbounds nuw %struct.mbedtls_asn1_buf, ptr %36, i32 0, i32 1
  %38 = load i64, ptr %37, align 8, !tbaa !20
  %39 = getelementptr inbounds nuw i8, ptr %35, i64 %38
  store ptr %39, ptr %7, align 8, !tbaa !9
  %40 = load ptr, ptr %6, align 8, !tbaa !3
  %41 = load ptr, ptr %7, align 8, !tbaa !9
  %42 = call i32 @mbedtls_asn1_get_tag(ptr noundef %40, ptr noundef %41, ptr noundef %11, i32 noundef 48)
  store i32 %42, ptr %10, align 4, !tbaa !13
  %43 = icmp ne i32 %42, 0
  br i1 %43, label %44, label %47

44:                                               ; preds = %25
  %45 = load i32, ptr %10, align 4, !tbaa !13
  %46 = call i32 @mbedtls_error_add(i32 noundef -9472, i32 noundef %45, ptr noundef @.str, i32 noundef 792)
  store i32 %46, ptr %5, align 4
  store i32 1, ptr %12, align 4
  br label %57

47:                                               ; preds = %25
  %48 = load ptr, ptr %7, align 8, !tbaa !9
  %49 = load ptr, ptr %6, align 8, !tbaa !3
  %50 = load ptr, ptr %49, align 8, !tbaa !9
  %51 = load i64, ptr %11, align 8, !tbaa !24
  %52 = getelementptr inbounds nuw i8, ptr %50, i64 %51
  %53 = icmp ne ptr %48, %52
  br i1 %53, label %54, label %56

54:                                               ; preds = %47
  %55 = call i32 @mbedtls_error_add(i32 noundef -9472, i32 noundef -102, ptr noundef @.str, i32 noundef 797)
  store i32 %55, ptr %5, align 4
  store i32 1, ptr %12, align 4
  br label %57

56:                                               ; preds = %47
  store i32 0, ptr %5, align 4
  store i32 1, ptr %12, align 4
  br label %57

57:                                               ; preds = %56, %54, %44, %22
  call void @llvm.lifetime.end.p0(i64 8, ptr %11) #9
  call void @llvm.lifetime.end.p0(i64 4, ptr %10) #9
  %58 = load i32, ptr %5, align 4
  ret i32 %58
}