; Function Attrs: nounwind uwtable
define hidden range(i32 -2147483648, 2147474176) i32 @mbedtls_x509_get_ext(ptr noundef %0, ptr noundef %1, ptr noundef %2, i32 noundef %3) local_unnamed_addr #0 {
  %5 = alloca i64, align 8
  call void @llvm.lifetime.start.p0(i64 8, ptr nonnull %5) #13
  %6 = getelementptr inbounds nuw i8, ptr %2, i64 8
  %7 = or i32 %3, 160
  %8 = tail call i32 @mbedtls_asn1_get_tag(ptr noundef %0, ptr noundef %1, ptr noundef nonnull %6, i32 noundef %7) #13
  %.not = icmp eq i32 %8, 0
  br i1 %.not, label %11, label %9

9:                                                ; preds = %4
  %10 = add nsw i32 %8, -9472
  br label %23

11:                                               ; preds = %4
  store i32 %7, ptr %2, align 8, !tbaa !9
  %12 = load ptr, ptr %0, align 8, !tbaa !3
  %13 = getelementptr inbounds nuw i8, ptr %2, i64 16
  store ptr %12, ptr %13, align 8, !tbaa !13
  %14 = load i64, ptr %6, align 8, !tbaa !14
  %15 = getelementptr inbounds nuw i8, ptr %12, i64 %14
  %16 = call i32 @mbedtls_asn1_get_tag(ptr noundef nonnull %0, ptr noundef %15, ptr noundef nonnull %5, i32 noundef 48) #13
  %.not19 = icmp eq i32 %16, 0
  br i1 %.not19, label %19, label %17

17:                                               ; preds = %11
  %18 = add nsw i32 %16, -9472
  br label %23

19:                                               ; preds = %11
  %20 = load ptr, ptr %0, align 8, !tbaa !3
  %21 = load i64, ptr %5, align 8, !tbaa !16
  %22 = getelementptr inbounds nuw i8, ptr %20, i64 %21
  %.not20 = icmp eq ptr %15, %22
  %spec.select = select i1 %.not20, i32 0, i32 -9574
  br label %23

23:                                               ; preds = %19, %17, %9
  %.0 = phi i32 [ %10, %9 ], [ %18, %17 ], [ %spec.select, %19 ]
  call void @llvm.lifetime.end.p0(i64 8, ptr nonnull %5) #13
  ret i32 %.0
}